#include <math.h>
#include <stdio.h>
#include <stdlib.h>
#include <string.h>
#include <iostream>
using namespace std;

int main ()
{
	int m = 0;												//??????m 
	int t1 = 0;												//??i??????? 
	int t2 = 0;												//??i0??????? 
	int t = 0;												//t1?t2???????i?i0??????? 
	int i0 = 0;
	cin >> m;
	int f ( int x );										//?????????????f 
	for ( int i = 3; i <= m/2; i ++ )						//??????????? 
	{
		t1 = f ( i );
		i0 = m - i;
		t2 = f ( i0 );
		t = t1 + t2;
		if ( t == 2 ) cout << i << " " << i0 << endl;
		i = i + 1;
	}
	return 0;
}
int f ( int x )												//???????????f 
{
	int z = 0;												//???????????????? 
	if ( x == 3 ) z = 1;
	else
	{
		int k = 0;
		for ( int j = 3; j < x; j ++ )
		{
			int y = 0;
			y = x % j;
			if ( y == 0 ) k = k + 1;
		}
		if ( k == 0 ) z = 1;
		else
			z = 0;
	}
	return z;
}